target datalayout = "e-m:e-p270:32:32-p271:32:32-p272:64:64-i64:64-i128:128-f80:128-n8:16:32:64-S128"
target triple = "x86_64-pc-linux-gnu"

%struct.UList = type { ptr, ptr, ptr, i32 }

; Function Attrs: inlinehint mustprogress nounwind uwtable
define internal noundef signext i8 @_ZL9U_FAILURE10UErrorCode(i32 noundef %0) #2 {
  %2 = alloca i32, align 4
  store i32 %0, ptr %2, align 4, !tbaa !9
  %3 = load i32, ptr %2, align 4, !tbaa !9
  %4 = icmp sgt i32 %3, 0
  %5 = zext i1 %4 to i8
  ret i8 %5
}

; Function Attrs: mustprogress uwtable
define ptr @ulist_createEmptyList_77(ptr noundef %0) #0 {
  %2 = alloca ptr, align 8
  %3 = alloca ptr, align 8
  %4 = alloca ptr, align 8
  %5 = alloca i32, align 4
  store ptr %0, ptr %3, align 8, !tbaa !3
  call void @llvm.lifetime.start.p0(i64 8, ptr %4) #7
  store ptr null, ptr %4, align 8, !tbaa !7
  %6 = load ptr, ptr %3, align 8, !tbaa !3
  %7 = load i32, ptr %6, align 4, !tbaa !9
  %8 = call noundef signext i8 @_ZL9U_FAILURE10UErrorCode(i32 noundef %7)
  %9 = icmp ne i8 %8, 0
  br i1 %9, label %10, label %11

10:                                               ; preds = %1
  store ptr null, ptr %2, align 8
  store i32 1, ptr %5, align 4
  br label %27

11:                                               ; preds = %1
  %12 = call noalias ptr @uprv_malloc_77(i64 noundef 32) #8
  store ptr %12, ptr %4, align 8, !tbaa !7
  %13 = load ptr, ptr %4, align 8, !tbaa !7
  %14 = icmp eq ptr %13, null
  br i1 %14, label %15, label %17

15:                                               ; preds = %11
  %16 = load ptr, ptr %3, align 8, !tbaa !3
  store i32 7, ptr %16, align 4, !tbaa !9
  store ptr null, ptr %2, align 8
  store i32 1, ptr %5, align 4
  br label %27

17:                                               ; preds = %11
  %18 = load ptr, ptr %4, align 8, !tbaa !7
  %19 = getelementptr inbounds nuw %struct.UList, ptr %18, i32 0, i32 0
  store ptr null, ptr %19, align 8, !tbaa !11
  %20 = load ptr, ptr %4, align 8, !tbaa !7
  %21 = getelementptr inbounds nuw %struct.UList, ptr %20, i32 0, i32 1
  store ptr null, ptr %21, align 8, !tbaa !15
  %22 = load ptr, ptr %4, align 8, !tbaa !7
  %23 = getelementptr inbounds nuw %struct.UList, ptr %22, i32 0, i32 2
  store ptr null, ptr %23, align 8, !tbaa !16
  %24 = load ptr, ptr %4, align 8, !tbaa !7
  %25 = getelementptr inbounds nuw %struct.UList, ptr %24, i32 0, i32 3
  store i32 0, ptr %25, align 8, !tbaa !17
  %26 = load ptr, ptr %4, align 8, !tbaa !7
  store ptr %26, ptr %2, align 8
  store i32 1, ptr %5, align 4
  br label %27

27:                                               ; preds = %17, %15, %10
  call void @llvm.lifetime.end.p0(i64 8, ptr %4) #7
  %28 = load ptr, ptr %2, align 8
  ret ptr %28
}