; Function Attrs: mustprogress uwtable
define noalias noundef ptr @ulist_createEmptyList_77(ptr noundef captures(none) %0) local_unnamed_addr #0 {
  %2 = load i32, ptr %0, align 4, !tbaa !3
  %3 = icmp slt i32 %2, 1
  br i1 %3, label %4, label %9

4:                                                ; preds = %1
  %5 = tail call noalias dereferenceable_or_null(32) ptr @uprv_malloc_77(i64 noundef 32) #13
  %6 = icmp eq ptr %5, null
  br i1 %6, label %7, label %8

7:                                                ; preds = %4
  store i32 7, ptr %0, align 4, !tbaa !3
  br label %9

8:                                                ; preds = %4
  tail call void @llvm.memset.p0.i64(ptr noundef nonnull align 8 dereferenceable(28) %5, i8 0, i64 28, i1 false)
  br label %9

9:                                                ; preds = %1, %8, %7
  %.0 = phi ptr [ null, %7 ], [ %5, %8 ], [ null, %1 ]
  ret ptr %.0
}